Certificate:
    Data:
        Version: 3 (0x2)
        Serial Number:
            fe:ae:6c:18:b5:d0:a6:82
    Signature Algorithm: ecdsa-with-SHA256
        Issuer: C = FR, L = Limoges, O = TMC, OU = IOT, CN = ACTMC
        Validity
            Not Before: Feb 11 16:04:32 2019 GMT
            Not After : Mar 13 16:04:32 2019 GMT
        Subject: C = FR, L = Limoges, O = TMC, OU = IOT, CN = ACTMC
        Subject Public Key Info:
            Public Key Algorithm: id-ecPublicKey
                Public-Key: (256 bit)
                pub:
                    04:fd:d6:b9:e5:27:a8:75:8b:bb:f5:69:44:bd:6d:
                    6c:55:5e:5a:e5:63:67:e6:6f:d9:24:9d:31:54:99:
                    1e:c3:ad:4e:f1:2b:03:49:72:ac:83:d6:01:64:aa:
                    5d:7d:44:bd:20:5e:89:8f:a5:e8:65:9e:c7:4e:53:
                    9f:74:61:24:aa
                ASN1 OID: prime256v1
                NIST CURVE: P-256
        X509v3 extensions:
            X509v3 Basic Constraints: 
                CA:TRUE
    Signature Algorithm: ecdsa-with-SHA256
         30:45:02:21:00:88:9d:10:04:8f:5f:83:9f:cd:c1:b6:8c:f9:
         0b:aa:13:3e:ae:b5:20:16:b5:cf:fc:05:f6:4a:58:02:da:ee:
         aa:02:20:08:54:b8:8c:bd:c2:0e:f1:5b:72:72:eb:e9:f1:3a:
         d6:f3:93:f6:b1:a3:35:d9:18:d4:11:f0:cd:59:3c:02:e1
-----BEGIN CERTIFICATE-----
MIIBnTCCAUOgAwIBAgIJAP6ubBi10KaCMAoGCCqGSM49BAMCMEsxCzAJBgNVBAYT
AkZSMRAwDgYDVQQHDAdMaW1vZ2VzMQwwCgYDVQQKDANUTUMxDDAKBgNVBAsMA0lP
VDEOMAwGA1UEAwwFQUNUTUMwHhcNMTkwMjExMTYwNDMyWhcNMTkwMzEzMTYwNDMy
WjBLMQswCQYDVQQGEwJGUjEQMA4GA1UEBwwHTGltb2dlczEMMAoGA1UECgwDVE1D
MQwwCgYDVQQLDANJT1QxDjAMBgNVBAMMBUFDVE1DMFkwEwYHKoZIzj0CAQYIKoZI
zj0DAQcDQgAE/da55SeodYu79WlEvW1sVV5a5WNn5m/ZJJ0xVJkew61O8SsDSXKs
g9YBZKpdfUS9IF6Jj6XoZZ7HTlOfdGEkqqMQMA4wDAYDVR0TBAUwAwEB/zAKBggq
hkjOPQQDAgNIADBFAiEAiJ0QBI9fg5/NwbaM+QuqEz6utSAWtc/8BfZKWALa7qoC
IAhUuIy9wg7xW3Jy6+nxOtbzk/axozXZGNQR8M1ZPALh
-----END CERTIFICATE-----
