Certificate:
    Data:
        Version: 3 (0x2)
        Serial Number:
            ff:ac:e5:66:0b:3c:12:a9
    Signature Algorithm: ecdsa-with-SHA256
        Issuer: C = FR, L = Limoges, O = TMC, OU = IOT, CN = ACTMC
        Validity
            Not Before: Feb 11 16:08:40 2019 GMT
            Not After : Feb  8 16:08:40 2029 GMT
        Subject: C = FR, L = Limoges, O = TMC, OU = IOT, CN = raspberry.com
        Subject Public Key Info:
            Public Key Algorithm: id-ecPublicKey
                Public-Key: (256 bit)
                pub:
                    04:03:76:06:49:68:1a:38:93:d5:47:37:4b:ee:34:
                    c4:32:18:51:ee:21:55:ac:bf:3d:95:27:1a:67:41:
                    53:2e:1b:22:21:f2:3f:8f:47:62:0c:2d:e5:4f:ed:
                    52:a3:e1:e0:b3:7c:9a:de:4a:8a:8d:6b:da:94:bc:
                    6f:fa:2c:f0:7d
                ASN1 OID: prime256v1
                NIST CURVE: P-256
        X509v3 extensions:
            X509v3 Basic Constraints: critical
                CA:FALSE
    Signature Algorithm: ecdsa-with-SHA256
         30:45:02:21:00:9c:5f:d4:41:bc:04:b8:24:4a:d6:45:7b:11:
         16:19:9b:02:fe:97:24:6f:e0:67:c8:33:83:57:16:79:5e:5d:
         6a:02:20:63:37:60:5f:0d:48:b7:74:b6:3f:9f:53:03:c5:14:
         14:af:ee:6f:7a:ef:35:7c:8c:d1:af:4c:05:2b:10:66:2d
Trusted Uses:
  TLS Web Server Authentication
No Rejected Uses.
-----BEGIN TRUSTED CERTIFICATE-----
MIIBpTCCAUugAwIBAgIJAP+s5WYLPBKpMAoGCCqGSM49BAMCMEsxCzAJBgNVBAYT
AkZSMRAwDgYDVQQHDAdMaW1vZ2VzMQwwCgYDVQQKDANUTUMxDDAKBgNVBAsMA0lP
VDEOMAwGA1UEAwwFQUNUTUMwHhcNMTkwMjExMTYwODQwWhcNMjkwMjA4MTYwODQw
WjBTMQswCQYDVQQGEwJGUjEQMA4GA1UEBwwHTGltb2dlczEMMAoGA1UECgwDVE1D
MQwwCgYDVQQLDANJT1QxFjAUBgNVBAMMDXJhc3BiZXJyeS5jb20wWTATBgcqhkjO
PQIBBggqhkjOPQMBBwNCAAQDdgZJaBo4k9VHN0vuNMQyGFHuIVWsvz2VJxpnQVMu
GyIh8j+PR2IMLeVP7VKj4eCzfJreSoqNa9qUvG/6LPB9oxAwDjAMBgNVHRMBAf8E
AjAAMAoGCCqGSM49BAMCA0gAMEUCIQCcX9RBvAS4JErWRXsRFhmbAv6XJG/gZ8gz
g1cWeV5dagIgYzdgXw1It3S2P59TA8UUFK/ub3rvNXyM0a9MBSsQZi0wDDAKBggr
BgEFBQcDAQ==
-----END TRUSTED CERTIFICATE-----
