Certificate:
    Data:
        Version: 3 (0x2)
        Serial Number:
            ff:ac:e5:66:0b:3c:12:a8
    Signature Algorithm: ecdsa-with-SHA256
        Issuer: C = FR, L = Limoges, O = TMC, OU = IOT, CN = ACTMC
        Validity
            Not Before: Feb 11 16:05:25 2019 GMT
            Not After : Feb  8 16:05:25 2029 GMT
        Subject: C = FR, L = Limoges, O = TMC, OU = IOT, CN = esp8266
        Subject Public Key Info:
            Public Key Algorithm: id-ecPublicKey
                Public-Key: (256 bit)
                pub:
                    04:55:e5:fb:c2:39:81:8a:75:14:2b:b0:6c:78:fe:
                    6f:1a:89:75:78:14:a5:ef:80:a7:42:ad:50:ef:e9:
                    f6:9b:af:2c:84:21:9e:b2:fd:24:d5:c1:58:82:a9:
                    06:dc:5f:0b:d6:4d:20:ca:66:37:f7:a4:f3:49:3c:
                    37:3c:cb:fe:ce
                ASN1 OID: prime256v1
                NIST CURVE: P-256
        X509v3 extensions:
            X509v3 Basic Constraints: critical
                CA:FALSE
    Signature Algorithm: ecdsa-with-SHA256
         30:46:02:21:00:f2:10:35:d7:1a:38:0f:28:c7:75:34:71:d4:
         18:28:51:5d:01:11:13:5f:54:dd:2b:a4:80:f1:73:7e:b5:2c:
         fb:02:21:00:bd:17:51:8b:de:f2:f9:9b:39:70:11:2d:df:25:
         a1:b4:8a:0f:16:03:81:1c:f8:e4:fb:a3:b7:d4:7a:2f:19:27
Trusted Uses:
  TLS Web Client Authentication
No Rejected Uses.
-----BEGIN TRUSTED CERTIFICATE-----
MIIBoDCCAUWgAwIBAgIJAP+s5WYLPBKoMAoGCCqGSM49BAMCMEsxCzAJBgNVBAYT
AkZSMRAwDgYDVQQHDAdMaW1vZ2VzMQwwCgYDVQQKDANUTUMxDDAKBgNVBAsMA0lP
VDEOMAwGA1UEAwwFQUNUTUMwHhcNMTkwMjExMTYwNTI1WhcNMjkwMjA4MTYwNTI1
WjBNMQswCQYDVQQGEwJGUjEQMA4GA1UEBwwHTGltb2dlczEMMAoGA1UECgwDVE1D
MQwwCgYDVQQLDANJT1QxEDAOBgNVBAMMB2VzcDgyNjYwWTATBgcqhkjOPQIBBggq
hkjOPQMBBwNCAARV5fvCOYGKdRQrsGx4/m8aiXV4FKXvgKdCrVDv6fabryyEIZ6y
/STVwViCqQbcXwvWTSDKZjf3pPNJPDc8y/7OoxAwDjAMBgNVHRMBAf8EAjAAMAoG
CCqGSM49BAMCA0kAMEYCIQDyEDXXGjgPKMd1NHHUGChRXQERE19U3SukgPFzfrUs
+wIhAL0XUYve8vmbOXARLd8lobSKDxYDgRz45Pujt9R6LxknMAwwCgYIKwYBBQUH
AwI=
-----END TRUSTED CERTIFICATE-----
