Certificate Request:
    Data:
        Version: 1 (0x0)
        Subject: C = FR, L = Limoges, O = TMC, OU = IOT, CN = raspberry.com
        Subject Public Key Info:
            Public Key Algorithm: id-ecPublicKey
                Public-Key: (256 bit)
                pub:
                    04:03:76:06:49:68:1a:38:93:d5:47:37:4b:ee:34:
                    c4:32:18:51:ee:21:55:ac:bf:3d:95:27:1a:67:41:
                    53:2e:1b:22:21:f2:3f:8f:47:62:0c:2d:e5:4f:ed:
                    52:a3:e1:e0:b3:7c:9a:de:4a:8a:8d:6b:da:94:bc:
                    6f:fa:2c:f0:7d
                ASN1 OID: prime256v1
                NIST CURVE: P-256
        Attributes:
        Requested Extensions:
            X509v3 Basic Constraints: 
                CA:FALSE
    Signature Algorithm: ecdsa-with-SHA256
         30:46:02:21:00:ff:07:24:bc:af:07:75:26:88:3b:19:e5:c5:
         4f:8e:94:39:16:55:77:ca:5b:ed:60:d0:80:50:85:07:85:49:
         ce:02:21:00:ed:ff:7f:2e:2d:ae:18:27:95:90:b4:b6:14:c5:
         34:39:eb:86:98:96:01:1f:df:8f:af:f8:1d:2d:24:df:35:07
-----BEGIN CERTIFICATE REQUEST-----
MIIBKzCB0QIBADBTMQswCQYDVQQGEwJGUjEQMA4GA1UEBwwHTGltb2dlczEMMAoG
A1UECgwDVE1DMQwwCgYDVQQLDANJT1QxFjAUBgNVBAMMDXJhc3BiZXJyeS5jb20w
WTATBgcqhkjOPQIBBggqhkjOPQMBBwNCAAQDdgZJaBo4k9VHN0vuNMQyGFHuIVWs
vz2VJxpnQVMuGyIh8j+PR2IMLeVP7VKj4eCzfJreSoqNa9qUvG/6LPB9oBwwGgYJ
KoZIhvcNAQkOMQ0wCzAJBgNVHRMEAjAAMAoGCCqGSM49BAMCA0kAMEYCIQD/ByS8
rwd1Jog7GeXFT46UORZVd8pb7WDQgFCFB4VJzgIhAO3/fy4trhgnlZC0thTFNDnr
hpiWAR/fj6/4HS0k3zUH
-----END CERTIFICATE REQUEST-----
